target datalayout = "e-m:e-p270:32:32-p271:32:32-p272:64:64-i64:64-i128:128-f80:128-n8:16:32:64-S128"
target triple = "x86_64-pc-linux-gnu"

%struct.uv__queue = type { ptr, ptr }
%struct.uv_loop_s = type { ptr, i32, %struct.uv__queue, %union.anon.1, ptr, i32, i64, i32, %struct.uv__queue, %struct.uv__queue, ptr, i32, i32, %struct.uv__queue, %union.pthread_mutex_t, %struct.uv_async_s, %union.pthread_rwlock_t, ptr, %struct.uv__queue, %struct.uv__queue, %struct.uv__queue, %struct.uv__queue, %struct.uv__queue, ptr, %struct.uv__io_s, i32, %struct.anon, i64, i64, [2 x i32], %struct.uv__io_s, %struct.uv_signal_s, i32, %struct.uv__io_s, ptr, i32 }
%union.anon.1 = type { ptr }
%union.pthread_mutex_t = type { %struct.__pthread_mutex_s }
%struct.__pthread_mutex_s = type { i32, i32, i32, i32, i32, i16, i16, %struct.__pthread_internal_list }
%struct.__pthread_internal_list = type { ptr, ptr }
%struct.uv_async_s = type { ptr, ptr, i32, ptr, %struct.uv__queue, %union.anon.2, ptr, i32, ptr, %struct.uv__queue, i32 }
%union.anon.2 = type { [4 x ptr] }
%union.pthread_rwlock_t = type { %struct.__pthread_rwlock_arch_t }
%struct.__pthread_rwlock_arch_t = type { i32, i32, i32, i32, i32, i32, i32, i32, i8, [7 x i8], i64, i32 }
%struct.anon = type { ptr, i32 }
%struct.uv_signal_s = type { ptr, ptr, i32, ptr, %struct.uv__queue, %union.anon.3, ptr, i32, ptr, i32, %struct.anon.4, i32, i32 }
%union.anon.3 = type { [4 x ptr] }
%struct.anon.4 = type { ptr, ptr, ptr, i32 }
%struct.uv__io_s = type { ptr, %struct.uv__queue, %struct.uv__queue, i32, i32, i32 }
%struct.uv_poll_s = type { ptr, ptr, i32, ptr, %struct.uv__queue, %union.anon, ptr, i32, ptr, %struct.uv__io_s }
%union.anon = type { [4 x ptr] }

; Function Attrs: nounwind uwtable
define internal void @uv__poll_stop(ptr noundef %0) #0 {
  %2 = alloca ptr, align 8
  store ptr %0, ptr %2, align 8
  %3 = load ptr, ptr %2, align 8
  %4 = getelementptr inbounds nuw %struct.uv_poll_s, ptr %3, i32 0, i32 1
  %5 = load ptr, ptr %4, align 8
  %6 = load ptr, ptr %2, align 8
  %7 = getelementptr inbounds nuw %struct.uv_poll_s, ptr %6, i32 0, i32 9
  call void @uv__io_stop(ptr noundef %5, ptr noundef %7, i32 noundef 8199)
  br label %8

8:                                                ; preds = %1
  %9 = load ptr, ptr %2, align 8
  %10 = getelementptr inbounds nuw %struct.uv_poll_s, ptr %9, i32 0, i32 7
  %11 = load i32, ptr %10, align 8
  %12 = and i32 %11, 4
  %13 = icmp eq i32 %12, 0
  br i1 %13, label %14, label %15

14:                                               ; preds = %8
  br label %35

15:                                               ; preds = %8
  %16 = load ptr, ptr %2, align 8
  %17 = getelementptr inbounds nuw %struct.uv_poll_s, ptr %16, i32 0, i32 7
  %18 = load i32, ptr %17, align 8
  %19 = and i32 %18, -5
  store i32 %19, ptr %17, align 8
  %20 = load ptr, ptr %2, align 8
  %21 = getelementptr inbounds nuw %struct.uv_poll_s, ptr %20, i32 0, i32 7
  %22 = load i32, ptr %21, align 8
  %23 = and i32 %22, 8
  %24 = icmp ne i32 %23, 0
  br i1 %24, label %25, label %34

25:                                               ; preds = %15
  br label %26

26:                                               ; preds = %25
  %27 = load ptr, ptr %2, align 8
  %28 = getelementptr inbounds nuw %struct.uv_poll_s, ptr %27, i32 0, i32 1
  %29 = load ptr, ptr %28, align 8
  %30 = getelementptr inbounds nuw %struct.uv_loop_s, ptr %29, i32 0, i32 1
  %31 = load i32, ptr %30, align 8
  %32 = add i32 %31, -1
  store i32 %32, ptr %30, align 8
  br label %33

33:                                               ; preds = %26
  br label %34

34:                                               ; preds = %33, %15
  br label %35

35:                                               ; preds = %34, %14
  %36 = load ptr, ptr %2, align 8
  %37 = getelementptr inbounds nuw %struct.uv_poll_s, ptr %36, i32 0, i32 1
  %38 = load ptr, ptr %37, align 8
  %39 = load ptr, ptr %2, align 8
  %40 = getelementptr inbounds nuw %struct.uv_poll_s, ptr %39, i32 0, i32 9
  %41 = getelementptr inbounds nuw %struct.uv__io_s, ptr %40, i32 0, i32 5
  %42 = load i32, ptr %41, align 8
  call void @uv__platform_invalidate_fd(ptr noundef %38, i32 noundef %42)
  ret void
}

; Function Attrs: nounwind uwtable
define dso_local i32 @uv_poll_start(ptr noundef %0, i32 noundef %1, ptr noundef %2) #0 {
  %4 = alloca i32, align 4
  %5 = alloca ptr, align 8
  %6 = alloca i32, align 4
  %7 = alloca ptr, align 8
  %8 = alloca ptr, align 8
  %9 = alloca ptr, align 8
  %10 = alloca i32, align 4
  %11 = alloca i32, align 4
  store ptr %0, ptr %5, align 8
  store i32 %1, ptr %6, align 4
  store ptr %2, ptr %7, align 8
  call void @llvm.lifetime.start.p0(i64 8, ptr %8) #4
  call void @llvm.lifetime.start.p0(i64 8, ptr %9) #4
  call void @llvm.lifetime.start.p0(i64 4, ptr %10) #4
  %12 = load ptr, ptr %5, align 8
  %13 = getelementptr inbounds nuw %struct.uv_poll_s, ptr %12, i32 0, i32 1
  %14 = load ptr, ptr %13, align 8
  %15 = getelementptr inbounds nuw %struct.uv_loop_s, ptr %14, i32 0, i32 10
  %16 = load ptr, ptr %15, align 8
  store ptr %16, ptr %8, align 8
  %17 = load ptr, ptr %5, align 8
  %18 = getelementptr inbounds nuw %struct.uv_poll_s, ptr %17, i32 0, i32 9
  store ptr %18, ptr %9, align 8
  %19 = load ptr, ptr %5, align 8
  %20 = getelementptr inbounds nuw %struct.uv_poll_s, ptr %19, i32 0, i32 1
  %21 = load ptr, ptr %20, align 8
  %22 = load ptr, ptr %9, align 8
  %23 = getelementptr inbounds nuw %struct.uv__io_s, ptr %22, i32 0, i32 5
  %24 = load i32, ptr %23, align 8
  %25 = call i32 @uv__fd_exists(ptr noundef %21, i32 noundef %24)
  %26 = icmp ne i32 %25, 0
  br i1 %26, label %27, label %39

27:                                               ; preds = %3
  %28 = load ptr, ptr %8, align 8
  %29 = load ptr, ptr %9, align 8
  %30 = getelementptr inbounds nuw %struct.uv__io_s, ptr %29, i32 0, i32 5
  %31 = load i32, ptr %30, align 8
  %32 = sext i32 %31 to i64
  %33 = getelementptr inbounds ptr, ptr %28, i64 %32
  %34 = load ptr, ptr %33, align 8
  %35 = load ptr, ptr %9, align 8
  %36 = icmp ne ptr %34, %35
  br i1 %36, label %37, label %38

37:                                               ; preds = %27
  store i32 -17, ptr %4, align 4
  store i32 1, ptr %11, align 4
  br label %112

38:                                               ; preds = %27
  br label %39

39:                                               ; preds = %38, %3
  %40 = load ptr, ptr %5, align 8
  call void @uv__poll_stop(ptr noundef %40)
  %41 = load i32, ptr %6, align 4
  %42 = icmp eq i32 %41, 0
  br i1 %42, label %43, label %44

43:                                               ; preds = %39
  store i32 0, ptr %4, align 4
  store i32 1, ptr %11, align 4
  br label %112

44:                                               ; preds = %39
  store i32 0, ptr %10, align 4
  %45 = load i32, ptr %6, align 4
  %46 = and i32 %45, 1
  %47 = icmp ne i32 %46, 0
  br i1 %47, label %48, label %51

48:                                               ; preds = %44
  %49 = load i32, ptr %10, align 4
  %50 = or i32 %49, 1
  store i32 %50, ptr %10, align 4
  br label %51

51:                                               ; preds = %48, %44
  %52 = load i32, ptr %6, align 4
  %53 = and i32 %52, 8
  %54 = icmp ne i32 %53, 0
  br i1 %54, label %55, label %58

55:                                               ; preds = %51
  %56 = load i32, ptr %10, align 4
  %57 = or i32 %56, 2
  store i32 %57, ptr %10, align 4
  br label %58

58:                                               ; preds = %55, %51
  %59 = load i32, ptr %6, align 4
  %60 = and i32 %59, 2
  %61 = icmp ne i32 %60, 0
  br i1 %61, label %62, label %65

62:                                               ; preds = %58
  %63 = load i32, ptr %10, align 4
  %64 = or i32 %63, 4
  store i32 %64, ptr %10, align 4
  br label %65

65:                                               ; preds = %62, %58
  %66 = load i32, ptr %6, align 4
  %67 = and i32 %66, 4
  %68 = icmp ne i32 %67, 0
  br i1 %68, label %69, label %72

69:                                               ; preds = %65
  %70 = load i32, ptr %10, align 4
  %71 = or i32 %70, 8192
  store i32 %71, ptr %10, align 4
  br label %72

72:                                               ; preds = %69, %65
  %73 = load ptr, ptr %5, align 8
  %74 = getelementptr inbounds nuw %struct.uv_poll_s, ptr %73, i32 0, i32 1
  %75 = load ptr, ptr %74, align 8
  %76 = load ptr, ptr %5, align 8
  %77 = getelementptr inbounds nuw %struct.uv_poll_s, ptr %76, i32 0, i32 9
  %78 = load i32, ptr %10, align 4
  call void @uv__io_start(ptr noundef %75, ptr noundef %77, i32 noundef %78)
  br label %79

79:                                               ; preds = %72
  %80 = load ptr, ptr %5, align 8
  %81 = getelementptr inbounds nuw %struct.uv_poll_s, ptr %80, i32 0, i32 7
  %82 = load i32, ptr %81, align 8
  %83 = and i32 %82, 4
  %84 = icmp ne i32 %83, 0
  br i1 %84, label %85, label %86

85:                                               ; preds = %79
  br label %108

86:                                               ; preds = %79
  %87 = load ptr, ptr %5, align 8
  %88 = getelementptr inbounds nuw %struct.uv_poll_s, ptr %87, i32 0, i32 7
  %89 = load i32, ptr %88, align 8
  %90 = or i32 %89, 4
  store i32 %90, ptr %88, align 8
  %91 = load ptr, ptr %5, align 8
  %92 = getelementptr inbounds nuw %struct.uv_poll_s, ptr %91, i32 0, i32 7
  %93 = load i32, ptr %92, align 8
  %94 = and i32 %93, 8
  %95 = icmp ne i32 %94, 0
  br i1 %95, label %96, label %106

96:                                               ; preds = %86
  br label %97

97:                                               ; preds = %96
  %98 = load ptr, ptr %5, align 8
  %99 = getelementptr inbounds nuw %struct.uv_poll_s, ptr %98, i32 0, i32 1
  %100 = load ptr, ptr %99, align 8
  %101 = getelementptr inbounds nuw %struct.uv_loop_s, ptr %100, i32 0, i32 1
  %102 = load i32, ptr %101, align 8
  %103 = add i32 %102, 1
  store i32 %103, ptr %101, align 8
  br label %104

104:                                              ; preds = %97
  br label %105

105:                                              ; preds = %104
  br label %106

106:                                              ; preds = %105, %86
  br label %107

107:                                              ; preds = %106
  br label %108

108:                                              ; preds = %107, %85
  %109 = load ptr, ptr %7, align 8
  %110 = load ptr, ptr %5, align 8
  %111 = getelementptr inbounds nuw %struct.uv_poll_s, ptr %110, i32 0, i32 8
  store ptr %109, ptr %111, align 8
  store i32 0, ptr %4, align 4
  store i32 1, ptr %11, align 4
  br label %112

112:                                              ; preds = %108, %43, %37
  call void @llvm.lifetime.end.p0(i64 4, ptr %10) #4
  call void @llvm.lifetime.end.p0(i64 8, ptr %9) #4
  call void @llvm.lifetime.end.p0(i64 8, ptr %8) #4
  %113 = load i32, ptr %4, align 4
  ret i32 %113
}