; Function Attrs: nounwind uwtable
define dso_local range(i32 -17, 1) i32 @uv_poll_start(ptr noundef %0, i32 noundef %1, ptr noundef %2) local_unnamed_addr #0 {
  %4 = getelementptr inbounds nuw i8, ptr %0, i64 8
  %5 = load ptr, ptr %4, align 8
  %6 = getelementptr inbounds nuw i8, ptr %5, i64 104
  %7 = load ptr, ptr %6, align 8
  %8 = getelementptr inbounds nuw i8, ptr %0, i64 104
  %9 = getelementptr inbounds nuw i8, ptr %0, i64 152
  %10 = load i32, ptr %9, align 8
  %11 = tail call i32 @uv__fd_exists(ptr noundef %5, i32 noundef %10) #2
  %.not = icmp eq i32 %11, 0
  br i1 %.not, label %17, label %12

12:                                               ; preds = %3
  %13 = load i32, ptr %9, align 8
  %14 = sext i32 %13 to i64
  %15 = getelementptr inbounds ptr, ptr %7, i64 %14
  %16 = load ptr, ptr %15, align 8
  %.not28 = icmp eq ptr %16, %8
  br i1 %.not28, label %17, label %55

17:                                               ; preds = %12, %3
  %18 = load ptr, ptr %4, align 8
  tail call void @uv__io_stop(ptr noundef %18, ptr noundef nonnull %8, i32 noundef 8199) #2
  %19 = getelementptr inbounds nuw i8, ptr %0, i64 88
  %20 = load i32, ptr %19, align 8
  %21 = and i32 %20, 4
  %22 = icmp eq i32 %21, 0
  br i1 %22, label %uv__poll_stop.exit, label %23

23:                                               ; preds = %17
  %24 = and i32 %20, -5
  store i32 %24, ptr %19, align 8
  %25 = and i32 %20, 8
  %.not.i = icmp eq i32 %25, 0
  br i1 %.not.i, label %uv__poll_stop.exit, label %26

26:                                               ; preds = %23
  %27 = load ptr, ptr %4, align 8
  %28 = getelementptr inbounds nuw i8, ptr %27, i64 8
  %29 = load i32, ptr %28, align 8
  %30 = add i32 %29, -1
  store i32 %30, ptr %28, align 8
  br label %uv__poll_stop.exit

uv__poll_stop.exit:                               ; preds = %17, %23, %26
  %31 = load ptr, ptr %4, align 8
  %32 = load i32, ptr %9, align 8
  tail call void @uv__platform_invalidate_fd(ptr noundef %31, i32 noundef %32) #2
  %33 = icmp eq i32 %1, 0
  br i1 %33, label %55, label %34

34:                                               ; preds = %uv__poll_stop.exit
  %35 = and i32 %1, 1
  %36 = lshr i32 %1, 2
  %37 = and i32 %36, 2
  %.1 = or disjoint i32 %37, %35
  %38 = shl i32 %1, 1
  %39 = and i32 %38, 4
  %.2 = or disjoint i32 %.1, %39
  %40 = shl i32 %1, 11
  %41 = and i32 %40, 8192
  %.3 = or disjoint i32 %.2, %41
  %42 = load ptr, ptr %4, align 8
  tail call void @uv__io_start(ptr noundef %42, ptr noundef nonnull %8, i32 noundef %.3) #2
  %43 = load i32, ptr %19, align 8
  %44 = and i32 %43, 4
  %.not33 = icmp eq i32 %44, 0
  br i1 %.not33, label %45, label %53

45:                                               ; preds = %34
  %46 = or disjoint i32 %43, 4
  store i32 %46, ptr %19, align 8
  %47 = and i32 %43, 8
  %.not34 = icmp eq i32 %47, 0
  br i1 %.not34, label %53, label %48

48:                                               ; preds = %45
  %49 = load ptr, ptr %4, align 8
  %50 = getelementptr inbounds nuw i8, ptr %49, i64 8
  %51 = load i32, ptr %50, align 8
  %52 = add i32 %51, 1
  store i32 %52, ptr %50, align 8
  br label %53

53:                                               ; preds = %48, %45, %34
  %54 = getelementptr inbounds nuw i8, ptr %0, i64 96
  store ptr %2, ptr %54, align 8
  br label %55

55:                                               ; preds = %uv__poll_stop.exit, %12, %53
  %.026 = phi i32 [ 0, %53 ], [ -17, %12 ], [ 0, %uv__poll_stop.exit ]
  ret i32 %.026
}